__sti___19_ActorPoseKeeper_cpp,0038a12c,36,M
_ZNK2al19ActorPoseKeeperBase9getRotateEv,00334f10,12,M
_ZNK2al19ActorPoseKeeperBase8getFrontEv,00334f04,12,M
_ZNK2al19ActorPoseKeeperBase7getQuatEv,00334ef8,12,M
_ZN2al19ActorPoseKeeperBase12getRotatePtrEv,001db6e4,8,O
_ZN2al19ActorPoseKeeperBase11getFrontPtrEv,001db6dc,8,O
_ZN2al19ActorPoseKeeperBase10getQuatPtrEv,001db6d4,8,O
_ZN2al19ActorPoseKeeperTFSVC2Ev,001db7c8,72,M
_ZNK2al19ActorPoseKeeperTFSV8getScaleEv,00334f88,8,O
_ZNK2al19ActorPoseKeeperTFSV11getVelocityEv,00334f78,8,O
_ZNK2al19ActorPoseKeeperTFSV8getFrontEv,00334f80,8,O
_ZN2al19ActorPoseKeeperTFSV11getScalePtrEv,001db73c,8,O
_ZN2al19ActorPoseKeeperTFSV14getVelocityPtrEv,001db778,8,O
_ZN2al19ActorPoseKeeperTFSV11getFrontPtrEv,001db734,8,O
_ZN2al20ActorPoseKeeperTFGSVC2Ev,001dd8c0,44,M
_ZNK2al20ActorPoseKeeperTFGSV10getGravityEv,003352a0,8,O
_ZN2al19ActorPoseKeeperTQSVC2Ev,001db8b4,76,M
_ZNK2al19ActorPoseKeeperTQSV8getScaleEv,00335074,8,O
_ZNK2al19ActorPoseKeeperTQSV11getVelocityEv,00335064,8,O
_ZNK2al19ActorPoseKeeperTQSV7getQuatEv,0033506c,8,O
_ZN2al19ActorPoseKeeperTQSV11getScalePtrEv,001db828,8,O
_ZN2al19ActorPoseKeeperTQSV14getVelocityPtrEv,001db860,8,O
_ZN2al19ActorPoseKeeperTQSV10getQuatPtrEv,001db820,8,O
_ZN2al19ActorPoseKeeperTRSVC2Ev,0024ed2c,68,M
_ZNK2al19ActorPoseKeeperTRSV9getRotateEv,003350f0,8,O
_ZNK2al19ActorPoseKeeperTRSV8getScaleEv,003350e8,8,O
_ZNK2al19ActorPoseKeeperTRSV11getVelocityEv,003350e0,8,O
_ZN2al19ActorPoseKeeperTRSV12getRotatePtrEv,001db918,8,O
_ZN2al19ActorPoseKeeperTRSV11getScalePtrEv,001db910,8,O
_ZN2al19ActorPoseKeeperTRSV14getVelocityPtrEv,001dba20,8,O
