_ZN2al15isMsgUpperPunchEj,0027f330,16,O
_ZN2al6isMsg9Ej,0027b758,16,O
_ZN2al22isMsgPlayerStatueTouchEj,0027dc18,16,O
_ZN2al24isMsgPlayerRollingAttackEj,0027f1b8,16,O
_ZN2al7isMsg14Ej,001e4a60,16,O
_ZN2al27isMsgPlayerInvincibleAttackEj,0027dc40,16,O
_ZN2al25isMsgPlayerFireBallAttackEj,0027db98,16,O
_ZN2al21isMsgPlayerTailAttackEj,0027dba8,16,O
_ZN2al15isMsgPlayerKickEj,00277d64,16,O
_ZN2al26isMsgPlayerBoomerangAttackEj,0027a6c4,16,O
_ZN2al27isMsgPlayerBoomerangReflectEj,0027dbb8,16,O
_ZN2al25isMsgPlayerBoomerangBreakEj,00278720,16,O
_ZN2al21isMsgPlayerFloorTouchEj,00273318,16,O
_ZN2al26isMsgPlayerInvincibleTouchEj,0027dc50,16,O
_ZN2al21isMsgKickKouraReflectEj,002620b4,16,O
_ZN2al19isMsgKickKouraBreakEj,00277c88,16,O
_ZN2al20isMsgKickStoneAttackEj,00277d2c,16,O
_ZN2al17isMsgGororiAttackEj,00272db0,16,O
_ZN2al20isMsgGororiBigAttackEj,00272da0,16,O
_ZN2al7isMsg49Ej,001e13a0,16,O
_ZN2al7isMsg51Ej,001e13c0,16,O
_ZN2al7isMsg52Ej,001e13b0,16,O
_ZN2al8sendMsg9EPNS_9HitSensorES1_,0026e9b8,28,O
_ZN2al29sendMsgPlayerInvincibleAttackEPNS_9HitSensorES1_,0026ea90,28,O
_ZN2al27sendMsgPlayerFireBallAttackEPNS_9HitSensorES1_,00262de4,28,O
_ZN2al23sendMsgPlayerTailAttackEPNS_9HitSensorES1_,001e34c8,28,O
_ZN2al17sendMsgPlayerKickEPNS_9HitSensorES1_,0026e964,28,O
_ZN2al28sendMsgPlayerBoomerangAttackEPNS_9HitSensorES1_,001e6690,28,O
_ZN2al29sendMsgPlayerBoomerangReflectEPNS_9HitSensorES1_,001e7258,28,O
_ZN2al27sendMsgPlayerBoomerangBreakEPNS_9HitSensorES1_,0025e534,28,O
_ZN2al9sendMsg34EPNS_9HitSensorES1_,001e723c,28,O
_ZN2al23sendMsgKickKouraReflectEPNS_9HitSensorES1_,001e34ac,28,O
_ZN2al21sendMsgKickKouraBreakEPNS_9HitSensorES1_,0021777c,28,O
_ZN2al22sendMsgKickStoneAttackEPNS_9HitSensorES1_,001e28f4,28,O
_ZN2al18sendMsgEnemyAttackEPNS_9HitSensorES1_,0027d56c,28,O
_ZN2al19sendMsgGororiAttackEPNS_9HitSensorES1_,00218a48,28,O
_ZN2al22sendMsgGororiBigAttackEPNS_9HitSensorES1_,00218a64,28,O
_ZN2al9sendMsg49EPNS_9HitSensorES1_,001e3490,28,O
_ZN2al9sendMsg51EPNS_9HitSensorES1_,001e3500,28,O
_ZN2al9sendMsg52EPNS_9HitSensorES1_,001e34e4,28,O
_ZN2al9sendMsg55EPNS_9HitSensorES1_,001d2d10,28,O
_ZN2al9sendMsg58EPNS_9HitSensorES1_,0026ec24,28,O
